; Function Attrs: mustprogress nofree nounwind willreturn memory(read, inaccessiblemem: none) uwtable
define hidden noundef zeroext i1 @_ZNK4llvh16FoldingSetNodeIDeqENS_19FoldingSetNodeIDRefE(ptr nocapture noundef nonnull readonly align 8 dereferenceable(144) %this, ptr nocapture readonly %RHS.coerce0, i64 %RHS.coerce1) local_unnamed_addr #1 align 2 {
entry:
  %Size.i = getelementptr inbounds i8, ptr %this, i64 8
  %0 = load i32, ptr %Size.i, align 8
  %conv.i = zext i32 %0 to i64
  %cmp.not.i = icmp eq i64 %conv.i, %RHS.coerce1
  br i1 %cmp.not.i, label %if.end.i, label %_ZNK4llvh19FoldingSetNodeIDRefeqES0_.exit

if.end.i:                                         ; preds = %entry
  %1 = load ptr, ptr %this, align 8
  %mul.i = shl nuw nsw i64 %RHS.coerce1, 2
  %bcmp.i = tail call i32 @bcmp(ptr %1, ptr %RHS.coerce0, i64 %mul.i)
  %cmp5.i = icmp eq i32 %bcmp.i, 0
  br label %_ZNK4llvh19FoldingSetNodeIDRefeqES0_.exit

_ZNK4llvh19FoldingSetNodeIDRefeqES0_.exit:        ; preds = %entry, %if.end.i
  %retval.0.i = phi i1 [ %cmp5.i, %if.end.i ], [ false, %entry ]
  ret i1 %retval.0.i
}